ccopy_reg
_reconstructor
p0
(cPhysicsTools.HeppyCore.statistics.counter
Counter
p1
c__builtin__
list
p2
(lp3
(lp4
S'All events'
p5
aI0
aa(lp6
S'HLT'
p7
aI0
aa(lp8
S'HLT_Ele32_WPTight_Gsf_v*'
p9
aI0
aa(lp10
S'HLT_Ele32_WPTight_Gsf_v*prescaled'
p11
aI0
aa(lp12
S'HLT_Ele35_WPTight_Gsf_v*'
p13
aI0
aa(lp14
S'HLT_Ele35_WPTight_Gsf_v*prescaled'
p15
aI0
aa(lp16
S'HLT_Ele38_WPTight_Gsf_v*'
p17
aI0
aa(lp18
S'HLT_Ele38_WPTight_Gsf_v*prescaled'
p19
aI0
aa(lp20
S'HLT_Ele40_WPTight_Gsf_v*'
p21
aI0
aa(lp22
S'HLT_Ele40_WPTight_Gsf_v*prescaled'
p23
aI0
aa(lp24
S'HLT_Ele23_Ele12_CaloIdL_TrackIdL_IsoVL_DZ_v*'
p25
aI0
aa(lp26
S'HLT_Ele23_Ele12_CaloIdL_TrackIdL_IsoVL_DZ_v*prescaled'
p27
aI0
aa(lp28
S'HLT_Ele23_Ele12_CaloIdL_TrackIdL_IsoVL_v*'
p29
aI0
aa(lp30
S'HLT_Ele23_Ele12_CaloIdL_TrackIdL_IsoVL_v*prescaled'
p31
aI0
aa(lp32
S'HLT_IsoMu27_v*'
p33
aI0
aa(lp34
S'HLT_IsoMu27_v*prescaled'
p35
aI0
aa(lp36
S'HLT_Mu17_TrkIsoVVL_Mu8_TrkIsoVVL_DZ_Mass3p8_v*'
p37
aI0
aa(lp38
S'HLT_Mu17_TrkIsoVVL_Mu8_TrkIsoVVL_DZ_Mass3p8_v*prescaled'
p39
aI0
aa(lp40
S'HLT_Mu17_TrkIsoVVL_Mu8_TrkIsoVVL_DZ_Mass8_v*'
p41
aI0
aa(lp42
S'HLT_Mu17_TrkIsoVVL_Mu8_TrkIsoVVL_DZ_Mass8_v*prescaled'
p43
aI0
aa(lp44
S'HLT_Mu23_TrkIsoVVL_Ele12_CaloIdL_TrackIdL_IsoVL_DZ_v*'
p45
aI0
aa(lp46
S'HLT_Mu23_TrkIsoVVL_Ele12_CaloIdL_TrackIdL_IsoVL_DZ_v*prescaled'
p47
aI0
aa(lp48
S'HLT_Mu12_TrkIsoVVL_Ele23_CaloIdL_TrackIdL_IsoVL_DZ_v*'
p49
aI0
aa(lp50
S'HLT_Mu12_TrkIsoVVL_Ele23_CaloIdL_TrackIdL_IsoVL_DZ_v*prescaled'
p51
aI0
aa(lp52
S'HLT_Mu8_TrkIsoVVL_Ele23_CaloIdL_TrackIdL_IsoVL_DZ_v*'
p53
aI0
aa(lp54
S'HLT_Mu8_TrkIsoVVL_Ele23_CaloIdL_TrackIdL_IsoVL_DZ_v*prescaled'
p55
aI0
aa(lp56
S'HLT_Mu23_TrkIsoVVL_Ele12_CaloIdL_TrackIdL_IsoVL_v*'
p57
aI0
aa(lp58
S'HLT_Mu23_TrkIsoVVL_Ele12_CaloIdL_TrackIdL_IsoVL_v*prescaled'
p59
aI0
aa(lp60
S'HLT_Mu12_TrkIsoVVL_Ele23_CaloIdL_TrackIdL_IsoVL_v*'
p61
aI0
aa(lp62
S'HLT_Mu12_TrkIsoVVL_Ele23_CaloIdL_TrackIdL_IsoVL_v*prescaled'
p63
aI0
aa(lp64
S'HLT_Mu8_TrkIsoVVL_Ele23_CaloIdL_TrackIdL_IsoVL_v*'
p65
aI0
aa(lp66
S'HLT_Mu8_TrkIsoVVL_Ele23_CaloIdL_TrackIdL_IsoVL_v*prescaled'
p67
aI0
aatp68
Rp69
(dp70
S'name'
p71
S'Trigger'
p72
sS'dico'
p73
(dp74
g61
I28
sg47
I21
sg67
I31
sg63
I29
sg41
I18
sg29
I12
sg15
I5
sg17
I6
sg65
I30
sg33
I14
sg53
I24
sg57
I26
sg45
I20
sg55
I25
sg37
I16
sg5
I0
sg43
I19
sg31
I13
sg23
I9
sg11
I3
sg27
I11
sg9
I2
sg59
I27
sg19
I7
sg35
I15
sg25
I10
sg39
I17
sg7
I1
sg51
I23
sg13
I4
sg49
I22
sg21
I8
ssb.