ccopy_reg
_reconstructor
p0
(cPhysicsTools.HeppyCore.statistics.counter
Counter
p1
c__builtin__
list
p2
(lp3
(lp4
S'All events'
p5
aI263
aa(lp6
S'Selected'
p7
aI252
aatp8
Rp9
(dp10
S'name'
p11
S'efficiency'
p12
sS'dico'
p13
(dp14
g5
I0
sg7
I1
ssb.