ccopy_reg
_reconstructor
p0
(cPhysicsTools.HeppyCore.statistics.average
Average
p1
c__builtin__
object
p2
Ntp3
Rp4
(dp5
S'sumw'
p6
F1814.0
sS'sumwx'
p7
F5442.0
sS'sumwx2'
p8
F16326.0
sS'name'
p9
S'NUP'
p10
sb.